
result.elf:     file format elf32-littleriscv


Disassembly of section .text:

00000000 <_start>:
   0:	00001197          	auipc	gp,0x1
   4:	c0018193          	add	gp,gp,-1024 # c00 <_gbl_ptr>
   8:	00002117          	auipc	sp,0x2
   c:	ef810113          	add	sp,sp,-264 # 1f00 <_stack_ptr>
  10:	00001297          	auipc	t0,0x1
  14:	6b828293          	add	t0,t0,1720 # 16c8 <to_change_screen>
  18:	00001317          	auipc	t1,0x1
  1c:	6b030313          	add	t1,t1,1712 # 16c8 <to_change_screen>

00000020 <_bss_init_loop>:
  20:	00534863          	blt	t1,t0,30 <_irq_config>
  24:	0002a023          	sw	zero,0(t0)
  28:	00428293          	add	t0,t0,4
  2c:	ff5ff06f          	j	20 <_bss_init_loop>

00000030 <_irq_config>:
  30:	05c00293          	li	t0,92
  34:	fff00313          	li	t1,-1
  38:	00002397          	auipc	t2,0x2
  3c:	3c838393          	add	t2,t2,968 # 2400 <_data_end>
  40:	30529073          	csrw	mtvec,t0
  44:	30431073          	csrw	mie,t1
  48:	34039073          	csrw	mscratch,t2

0000004c <_main_call>:
  4c:	00000513          	li	a0,0
  50:	00000593          	li	a1,0
  54:	26c000ef          	jal	2c0 <main>

00000058 <_endless_loop>:
  58:	0000006f          	j	58 <_endless_loop>

0000005c <_int_handler>:
  5c:	34011173          	csrrw	sp,mscratch,sp
  60:	fb010113          	add	sp,sp,-80
  64:	00112223          	sw	ra,4(sp)
  68:	00002097          	auipc	ra,0x2
  6c:	e9808093          	add	ra,ra,-360 # 1f00 <_stack_ptr>
  70:	fe1144e3          	blt	sp,ra,58 <_endless_loop>
  74:	00512623          	sw	t0,12(sp)
  78:	00612823          	sw	t1,16(sp)
  7c:	00712a23          	sw	t2,20(sp)
  80:	00a12c23          	sw	a0,24(sp)
  84:	00b12e23          	sw	a1,28(sp)
  88:	02c12023          	sw	a2,32(sp)
  8c:	02d12223          	sw	a3,36(sp)
  90:	02e12423          	sw	a4,40(sp)
  94:	02f12623          	sw	a5,44(sp)
  98:	03012823          	sw	a6,48(sp)
  9c:	03112a23          	sw	a7,52(sp)
  a0:	03c12c23          	sw	t3,56(sp)
  a4:	03d12e23          	sw	t4,60(sp)
  a8:	05e12023          	sw	t5,64(sp)
  ac:	05f12223          	sw	t6,68(sp)
  b0:	340022f3          	csrr	t0,mscratch
  b4:	34102373          	csrr	t1,mepc
  b8:	34202573          	csrr	a0,mcause
  bc:	00512423          	sw	t0,8(sp)
  c0:	04612423          	sw	t1,72(sp)
  c4:	04a12623          	sw	a0,76(sp)
  c8:	288000ef          	jal	350 <int_handler>
  cc:	00010513          	mv	a0,sp
  d0:	04852303          	lw	t1,72(a0)
  d4:	05010113          	add	sp,sp,80
  d8:	34011073          	csrw	mscratch,sp
  dc:	34131073          	csrw	mepc,t1
  e0:	00452083          	lw	ra,4(a0)
  e4:	00852103          	lw	sp,8(a0)
  e8:	00c52283          	lw	t0,12(a0)
  ec:	01052303          	lw	t1,16(a0)
  f0:	01452383          	lw	t2,20(a0)
  f4:	01c52583          	lw	a1,28(a0)
  f8:	02052603          	lw	a2,32(a0)
  fc:	02452683          	lw	a3,36(a0)
 100:	02852703          	lw	a4,40(a0)
 104:	02c52783          	lw	a5,44(a0)
 108:	03052803          	lw	a6,48(a0)
 10c:	03452883          	lw	a7,52(a0)
 110:	03852e03          	lw	t3,56(a0)
 114:	03c52e83          	lw	t4,60(a0)
 118:	04052f03          	lw	t5,64(a0)
 11c:	04452f83          	lw	t6,68(a0)
 120:	02852503          	lw	a0,40(a0)
 124:	30200073          	mret

00000128 <init_color>:
 128:	fd010113          	add	sp,sp,-48
 12c:	02812623          	sw	s0,44(sp)
 130:	03010413          	add	s0,sp,48
 134:	00050793          	mv	a5,a0
 138:	00058693          	mv	a3,a1
 13c:	00060713          	mv	a4,a2
 140:	fcf40fa3          	sb	a5,-33(s0)
 144:	00068793          	mv	a5,a3
 148:	fcf40f23          	sb	a5,-34(s0)
 14c:	00070793          	mv	a5,a4
 150:	fcf40ea3          	sb	a5,-35(s0)
 154:	fe042623          	sw	zero,-20(s0)
 158:	07c0006f          	j	1d4 <init_color+0xac>
 15c:	fdf40783          	lb	a5,-33(s0)
 160:	00779793          	sll	a5,a5,0x7
 164:	01879713          	sll	a4,a5,0x18
 168:	41875713          	sra	a4,a4,0x18
 16c:	fde40783          	lb	a5,-34(s0)
 170:	00479793          	sll	a5,a5,0x4
 174:	01879793          	sll	a5,a5,0x18
 178:	4187d793          	sra	a5,a5,0x18
 17c:	00f767b3          	or	a5,a4,a5
 180:	01879713          	sll	a4,a5,0x18
 184:	41875713          	sra	a4,a4,0x18
 188:	fdf40783          	lb	a5,-33(s0)
 18c:	00379793          	sll	a5,a5,0x3
 190:	01879793          	sll	a5,a5,0x18
 194:	4187d793          	sra	a5,a5,0x18
 198:	00f767b3          	or	a5,a4,a5
 19c:	01879713          	sll	a4,a5,0x18
 1a0:	41875713          	sra	a4,a4,0x18
 1a4:	fdd40783          	lb	a5,-35(s0)
 1a8:	00f767b3          	or	a5,a4,a5
 1ac:	01879693          	sll	a3,a5,0x18
 1b0:	4186d693          	sra	a3,a3,0x18
 1b4:	07001737          	lui	a4,0x7001
 1b8:	fec42783          	lw	a5,-20(s0)
 1bc:	00f707b3          	add	a5,a4,a5
 1c0:	0ff6f713          	zext.b	a4,a3
 1c4:	00e78023          	sb	a4,0(a5)
 1c8:	fec42783          	lw	a5,-20(s0)
 1cc:	00178793          	add	a5,a5,1
 1d0:	fef42623          	sw	a5,-20(s0)
 1d4:	fec42703          	lw	a4,-20(s0)
 1d8:	000017b7          	lui	a5,0x1
 1dc:	95f78793          	add	a5,a5,-1697 # 95f <_trap_stack_size+0x45f>
 1e0:	f6e7dee3          	bge	a5,a4,15c <init_color+0x34>
 1e4:	00000013          	nop
 1e8:	00000013          	nop
 1ec:	02c12403          	lw	s0,44(sp)
 1f0:	03010113          	add	sp,sp,48
 1f4:	00008067          	ret

000001f8 <init_text_ch>:
 1f8:	fd010113          	add	sp,sp,-48
 1fc:	02812623          	sw	s0,44(sp)
 200:	03010413          	add	s0,sp,48
 204:	00050793          	mv	a5,a0
 208:	fcf40fa3          	sb	a5,-33(s0)
 20c:	fe042623          	sw	zero,-20(s0)
 210:	0240006f          	j	234 <init_text_ch+0x3c>
 214:	07000737          	lui	a4,0x7000
 218:	fec42783          	lw	a5,-20(s0)
 21c:	00f707b3          	add	a5,a4,a5
 220:	fdf44703          	lbu	a4,-33(s0)
 224:	00e78023          	sb	a4,0(a5)
 228:	fec42783          	lw	a5,-20(s0)
 22c:	00178793          	add	a5,a5,1
 230:	fef42623          	sw	a5,-20(s0)
 234:	fec42703          	lw	a4,-20(s0)
 238:	000017b7          	lui	a5,0x1
 23c:	95f78793          	add	a5,a5,-1697 # 95f <_trap_stack_size+0x45f>
 240:	fce7dae3          	bge	a5,a4,214 <init_text_ch+0x1c>
 244:	00000013          	nop
 248:	00000013          	nop
 24c:	02c12403          	lw	s0,44(sp)
 250:	03010113          	add	sp,sp,48
 254:	00008067          	ret

00000258 <init_text>:
 258:	fd010113          	add	sp,sp,-48
 25c:	02812623          	sw	s0,44(sp)
 260:	03010413          	add	s0,sp,48
 264:	fca42e23          	sw	a0,-36(s0)
 268:	fe042623          	sw	zero,-20(s0)
 26c:	0300006f          	j	29c <_stack_size+0x1c>
 270:	fec42783          	lw	a5,-20(s0)
 274:	fdc42703          	lw	a4,-36(s0)
 278:	00f70733          	add	a4,a4,a5
 27c:	070006b7          	lui	a3,0x7000
 280:	fec42783          	lw	a5,-20(s0)
 284:	00f687b3          	add	a5,a3,a5
 288:	00074703          	lbu	a4,0(a4) # 7000000 <_data_end+0x6ffdc00>
 28c:	00e78023          	sb	a4,0(a5)
 290:	fec42783          	lw	a5,-20(s0)
 294:	00178793          	add	a5,a5,1
 298:	fef42623          	sw	a5,-20(s0)
 29c:	fec42703          	lw	a4,-20(s0)
 2a0:	000017b7          	lui	a5,0x1
 2a4:	95f78793          	add	a5,a5,-1697 # 95f <_trap_stack_size+0x45f>
 2a8:	fce7d4e3          	bge	a5,a4,270 <init_text+0x18>
 2ac:	00000013          	nop
 2b0:	00000013          	nop
 2b4:	02c12403          	lw	s0,44(sp)
 2b8:	03010113          	add	sp,sp,48
 2bc:	00008067          	ret

000002c0 <main>:
 2c0:	fe010113          	add	sp,sp,-32
 2c4:	00112e23          	sw	ra,28(sp)
 2c8:	00812c23          	sw	s0,24(sp)
 2cc:	02010413          	add	s0,sp,32
 2d0:	fea42623          	sw	a0,-20(s0)
 2d4:	feb42423          	sw	a1,-24(s0)
 2d8:	000017b7          	lui	a5,0x1
 2dc:	6c07a423          	sw	zero,1736(a5) # 16c8 <to_change_screen>
 2e0:	000017b7          	lui	a5,0x1
 2e4:	6c07a623          	sw	zero,1740(a5) # 16cc <finish>
 2e8:	030007b7          	lui	a5,0x3000
 2ec:	00100713          	li	a4,1
 2f0:	02e7a223          	sw	a4,36(a5) # 3000024 <_data_end+0x2ffdc24>
 2f4:	00700613          	li	a2,7
 2f8:	00300593          	li	a1,3
 2fc:	00000513          	li	a0,0
 300:	e29ff0ef          	jal	128 <init_color>
 304:	40000513          	li	a0,1024
 308:	f51ff0ef          	jal	258 <init_text>
 30c:	000017b7          	lui	a5,0x1
 310:	6c87a783          	lw	a5,1736(a5) # 16c8 <to_change_screen>
 314:	fe078ce3          	beqz	a5,30c <main+0x4c>
 318:	000017b7          	lui	a5,0x1
 31c:	6cc7a783          	lw	a5,1740(a5) # 16cc <finish>
 320:	fe0796e3          	bnez	a5,30c <main+0x4c>
 324:	00700613          	li	a2,7
 328:	00400593          	li	a1,4
 32c:	00000513          	li	a0,0
 330:	df9ff0ef          	jal	128 <init_color>
 334:	000017b7          	lui	a5,0x1
 338:	d6478513          	add	a0,a5,-668 # d64 <g_goodbye_str>
 33c:	f1dff0ef          	jal	258 <init_text>
 340:	000017b7          	lui	a5,0x1
 344:	00100713          	li	a4,1
 348:	6ce7a623          	sw	a4,1740(a5) # 16cc <finish>
 34c:	fc1ff06f          	j	30c <main+0x4c>

00000350 <int_handler>:
 350:	ff010113          	add	sp,sp,-16
 354:	00812623          	sw	s0,12(sp)
 358:	01010413          	add	s0,sp,16
 35c:	030007b7          	lui	a5,0x3000
 360:	0047a783          	lw	a5,4(a5) # 3000004 <_data_end+0x2ffdc04>
 364:	00078e63          	beqz	a5,380 <int_handler+0x30>
 368:	000017b7          	lui	a5,0x1
 36c:	6c87a783          	lw	a5,1736(a5) # 16c8 <to_change_screen>
 370:	00079863          	bnez	a5,380 <int_handler+0x30>
 374:	000017b7          	lui	a5,0x1
 378:	00100713          	li	a4,1
 37c:	6ce7a423          	sw	a4,1736(a5) # 16c8 <to_change_screen>
 380:	00000013          	nop
 384:	00c12403          	lw	s0,12(sp)
 388:	01010113          	add	sp,sp,16
 38c:	00008067          	ret
